; ModuleID = '39/1653.c'
source_filename = "39/1653.c"
target datalayout = "e-m:e-p270:32:32-p271:32:32-p272:64:64-i64:64-f80:128-n8:16:32:64-S128"
target triple = "x86_64-pc-linux-gnu"

@.str = private unnamed_addr constant [3 x i8] c"%d\00", align 1
@.str.1 = private unnamed_addr constant [15 x i8] c"%s%d%d %c %c%d\00", align 1
@.str.2 = private unnamed_addr constant [10 x i8] c"%s\0A%d\0A%d\0A\00", align 1

; Function Attrs: noinline nounwind uwtable
define dso_local i32 @main(i32 %0, i8** %1) #0 {
  %3 = alloca i32, align 4
  %4 = alloca i32, align 4
  %5 = alloca i8**, align 8
  %6 = alloca i32, align 4
  %7 = alloca [100 x [50 x i8]], align 16
  %8 = alloca [100 x i32], align 16
  %9 = alloca [100 x i32], align 16
  %10 = alloca [100 x i8], align 16
  %11 = alloca [100 x i8], align 16
  %12 = alloca [100 x i32], align 16
  %13 = alloca i32, align 4
  %14 = alloca [100 x i32], align 16
  %15 = alloca i32, align 4
  %16 = alloca i32, align 4
  %17 = alloca i32, align 4
  store i32 0, i32* %3, align 4
  store i32 %0, i32* %4, align 4
  store i8** %1, i8*** %5, align 8
  store i32 0, i32* %13, align 4
  %18 = bitcast [100 x i32]* %14 to i8*
  call void @llvm.memset.p0i8.i64(i8* align 16 %18, i8 0, i64 400, i1 false)
  store i32 0, i32* %15, align 4
  store i32 0, i32* %16, align 4
  %19 = call i32 (i8*, ...) @__isoc99_scanf(i8* getelementptr inbounds ([3 x i8], [3 x i8]* @.str, i64 0, i64 0), i32* %6)
  store i32 0, i32* %13, align 4
  br label %20

20:                                               ; preds = %45, %2
  %21 = load i32, i32* %13, align 4
  %22 = load i32, i32* %6, align 4
  %23 = icmp slt i32 %21, %22
  br i1 %23, label %24, label %48

24:                                               ; preds = %20
  %25 = load i32, i32* %13, align 4
  %26 = sext i32 %25 to i64
  %27 = getelementptr inbounds [100 x [50 x i8]], [100 x [50 x i8]]* %7, i64 0, i64 %26
  %28 = getelementptr inbounds [50 x i8], [50 x i8]* %27, i64 0, i64 0
  %29 = load i32, i32* %13, align 4
  %30 = sext i32 %29 to i64
  %31 = getelementptr inbounds [100 x i32], [100 x i32]* %8, i64 0, i64 %30
  %32 = load i32, i32* %13, align 4
  %33 = sext i32 %32 to i64
  %34 = getelementptr inbounds [100 x i32], [100 x i32]* %9, i64 0, i64 %33
  %35 = load i32, i32* %13, align 4
  %36 = sext i32 %35 to i64
  %37 = getelementptr inbounds [100 x i8], [100 x i8]* %10, i64 0, i64 %36
  %38 = load i32, i32* %13, align 4
  %39 = sext i32 %38 to i64
  %40 = getelementptr inbounds [100 x i8], [100 x i8]* %11, i64 0, i64 %39
  %41 = load i32, i32* %13, align 4
  %42 = sext i32 %41 to i64
  %43 = getelementptr inbounds [100 x i32], [100 x i32]* %12, i64 0, i64 %42
  %44 = call i32 (i8*, ...) @__isoc99_scanf(i8* getelementptr inbounds ([15 x i8], [15 x i8]* @.str.1, i64 0, i64 0), i8* %28, i32* %31, i32* %34, i8* %37, i8* %40, i32* %43)
  br label %45

45:                                               ; preds = %24
  %46 = load i32, i32* %13, align 4
  %47 = add nsw i32 %46, 1
  store i32 %47, i32* %13, align 4
  br label %20

48:                                               ; preds = %20
  store i32 0, i32* %13, align 4
  br label %49

49:                                               ; preds = %140, %48
  %50 = load i32, i32* %13, align 4
  %51 = load i32, i32* %6, align 4
  %52 = icmp slt i32 %50, %51
  br i1 %52, label %53, label %143

53:                                               ; preds = %49
  %54 = load i32, i32* %13, align 4
  %55 = sext i32 %54 to i64
  %56 = getelementptr inbounds [100 x i32], [100 x i32]* %8, i64 0, i64 %55
  %57 = load i32, i32* %56, align 4
  %58 = icmp sgt i32 %57, 80
  br i1 %58, label %59, label %71

59:                                               ; preds = %53
  %60 = load i32, i32* %13, align 4
  %61 = sext i32 %60 to i64
  %62 = getelementptr inbounds [100 x i32], [100 x i32]* %12, i64 0, i64 %61
  %63 = load i32, i32* %62, align 4
  %64 = icmp sge i32 %63, 1
  br i1 %64, label %65, label %71

65:                                               ; preds = %59
  %66 = load i32, i32* %13, align 4
  %67 = sext i32 %66 to i64
  %68 = getelementptr inbounds [100 x i32], [100 x i32]* %14, i64 0, i64 %67
  %69 = load i32, i32* %68, align 4
  %70 = add nsw i32 %69, 8000
  store i32 %70, i32* %68, align 4
  br label %71

71:                                               ; preds = %65, %59, %53
  %72 = load i32, i32* %13, align 4
  %73 = sext i32 %72 to i64
  %74 = getelementptr inbounds [100 x i32], [100 x i32]* %8, i64 0, i64 %73
  %75 = load i32, i32* %74, align 4
  %76 = icmp sgt i32 %75, 85
  br i1 %76, label %77, label %89

77:                                               ; preds = %71
  %78 = load i32, i32* %13, align 4
  %79 = sext i32 %78 to i64
  %80 = getelementptr inbounds [100 x i32], [100 x i32]* %9, i64 0, i64 %79
  %81 = load i32, i32* %80, align 4
  %82 = icmp sgt i32 %81, 80
  br i1 %82, label %83, label %89

83:                                               ; preds = %77
  %84 = load i32, i32* %13, align 4
  %85 = sext i32 %84 to i64
  %86 = getelementptr inbounds [100 x i32], [100 x i32]* %14, i64 0, i64 %85
  %87 = load i32, i32* %86, align 4
  %88 = add nsw i32 %87, 4000
  store i32 %88, i32* %86, align 4
  br label %89

89:                                               ; preds = %83, %77, %71
  %90 = load i32, i32* %13, align 4
  %91 = sext i32 %90 to i64
  %92 = getelementptr inbounds [100 x i32], [100 x i32]* %8, i64 0, i64 %91
  %93 = load i32, i32* %92, align 4
  %94 = icmp sgt i32 %93, 90
  br i1 %94, label %95, label %101

95:                                               ; preds = %89
  %96 = load i32, i32* %13, align 4
  %97 = sext i32 %96 to i64
  %98 = getelementptr inbounds [100 x i32], [100 x i32]* %14, i64 0, i64 %97
  %99 = load i32, i32* %98, align 4
  %100 = add nsw i32 %99, 2000
  store i32 %100, i32* %98, align 4
  br label %101

101:                                              ; preds = %95, %89
  %102 = load i32, i32* %13, align 4
  %103 = sext i32 %102 to i64
  %104 = getelementptr inbounds [100 x i32], [100 x i32]* %8, i64 0, i64 %103
  %105 = load i32, i32* %104, align 4
  %106 = icmp sgt i32 %105, 85
  br i1 %106, label %107, label %120

107:                                              ; preds = %101
  %108 = load i32, i32* %13, align 4
  %109 = sext i32 %108 to i64
  %110 = getelementptr inbounds [100 x i8], [100 x i8]* %11, i64 0, i64 %109
  %111 = load i8, i8* %110, align 1
  %112 = sext i8 %111 to i32
  %113 = icmp eq i32 %112, 89
  br i1 %113, label %114, label %120

114:                                              ; preds = %107
  %115 = load i32, i32* %13, align 4
  %116 = sext i32 %115 to i64
  %117 = getelementptr inbounds [100 x i32], [100 x i32]* %14, i64 0, i64 %116
  %118 = load i32, i32* %117, align 4
  %119 = add nsw i32 %118, 1000
  store i32 %119, i32* %117, align 4
  br label %120

120:                                              ; preds = %114, %107, %101
  %121 = load i32, i32* %13, align 4
  %122 = sext i32 %121 to i64
  %123 = getelementptr inbounds [100 x i32], [100 x i32]* %9, i64 0, i64 %122
  %124 = load i32, i32* %123, align 4
  %125 = icmp sgt i32 %124, 80
  br i1 %125, label %126, label %139

126:                                              ; preds = %120
  %127 = load i32, i32* %13, align 4
  %128 = sext i32 %127 to i64
  %129 = getelementptr inbounds [100 x i8], [100 x i8]* %10, i64 0, i64 %128
  %130 = load i8, i8* %129, align 1
  %131 = sext i8 %130 to i32
  %132 = icmp eq i32 %131, 89
  br i1 %132, label %133, label %139

133:                                              ; preds = %126
  %134 = load i32, i32* %13, align 4
  %135 = sext i32 %134 to i64
  %136 = getelementptr inbounds [100 x i32], [100 x i32]* %14, i64 0, i64 %135
  %137 = load i32, i32* %136, align 4
  %138 = add nsw i32 %137, 850
  store i32 %138, i32* %136, align 4
  br label %139

139:                                              ; preds = %133, %126, %120
  br label %140

140:                                              ; preds = %139
  %141 = load i32, i32* %13, align 4
  %142 = add nsw i32 %141, 1
  store i32 %142, i32* %13, align 4
  br label %49

143:                                              ; preds = %49
  %144 = getelementptr inbounds [100 x i32], [100 x i32]* %14, i64 0, i64 0
  %145 = load i32, i32* %144, align 16
  store i32 %145, i32* %17, align 4
  store i32 1, i32* %13, align 4
  br label %146

146:                                              ; preds = %170, %143
  %147 = load i32, i32* %13, align 4
  %148 = load i32, i32* %6, align 4
  %149 = icmp slt i32 %147, %148
  br i1 %149, label %150, label %173

150:                                              ; preds = %146
  %151 = load i32, i32* %13, align 4
  %152 = sext i32 %151 to i64
  %153 = getelementptr inbounds [100 x i32], [100 x i32]* %14, i64 0, i64 %152
  %154 = load i32, i32* %153, align 4
  %155 = load i32, i32* %15, align 4
  %156 = add nsw i32 %155, %154
  store i32 %156, i32* %15, align 4
  %157 = load i32, i32* %13, align 4
  %158 = sext i32 %157 to i64
  %159 = getelementptr inbounds [100 x i32], [100 x i32]* %14, i64 0, i64 %158
  %160 = load i32, i32* %159, align 4
  %161 = load i32, i32* %17, align 4
  %162 = icmp sgt i32 %160, %161
  br i1 %162, label %163, label %169

163:                                              ; preds = %150
  %164 = load i32, i32* %13, align 4
  %165 = sext i32 %164 to i64
  %166 = getelementptr inbounds [100 x i32], [100 x i32]* %14, i64 0, i64 %165
  %167 = load i32, i32* %166, align 4
  store i32 %167, i32* %17, align 4
  %168 = load i32, i32* %13, align 4
  store i32 %168, i32* %16, align 4
  br label %169

169:                                              ; preds = %163, %150
  br label %170

170:                                              ; preds = %169
  %171 = load i32, i32* %13, align 4
  %172 = add nsw i32 %171, 1
  store i32 %172, i32* %13, align 4
  br label %146

173:                                              ; preds = %146
  %174 = load i32, i32* %15, align 4
  %175 = getelementptr inbounds [100 x i32], [100 x i32]* %14, i64 0, i64 0
  %176 = load i32, i32* %175, align 16
  %177 = add nsw i32 %174, %176
  store i32 %177, i32* %15, align 4
  %178 = load i32, i32* %16, align 4
  %179 = sext i32 %178 to i64
  %180 = getelementptr inbounds [100 x [50 x i8]], [100 x [50 x i8]]* %7, i64 0, i64 %179
  %181 = getelementptr inbounds [50 x i8], [50 x i8]* %180, i64 0, i64 0
  %182 = load i32, i32* %16, align 4
  %183 = sext i32 %182 to i64
  %184 = getelementptr inbounds [100 x i32], [100 x i32]* %14, i64 0, i64 %183
  %185 = load i32, i32* %184, align 4
  %186 = load i32, i32* %15, align 4
  %187 = call i32 (i8*, ...) @printf(i8* getelementptr inbounds ([10 x i8], [10 x i8]* @.str.2, i64 0, i64 0), i8* %181, i32 %185, i32 %186)
  ret i32 0
}

; Function Attrs: argmemonly nounwind willreturn
declare void @llvm.memset.p0i8.i64(i8* nocapture writeonly, i8, i64, i1 immarg) #1

declare dso_local i32 @__isoc99_scanf(i8*, ...) #2

declare dso_local i32 @printf(i8*, ...) #2


!llvm.module.flags = !{!0}
!llvm.ident = !{!1}

!0 = !{i32 1, !"wchar_size", i32 4}
!1 = !{!"clang version 10.0.0-4ubuntu1 "}
